; Function Attrs: mustprogress nofree norecurse nosync nounwind willreturn memory(argmem: read) uwtable
define hidden noundef zeroext i8 @_ZNK6hermes2vm16JSTypedArrayBase12getByteWidthEv(ptr noundef nonnull readonly align 4 captures(none) dereferenceable(32) %this) local_unnamed_addr #0 align 2 {
entry:
  %bf.load.i.i = load i32, ptr %this, align 4
  %bf.lshr.i.i = lshr i32 %bf.load.i.i, 24
  %conv = zext nneg i32 %bf.lshr.i.i to i64
  %sub = add nsw i64 %conv, -35
  %arrayidx = getelementptr inbounds [11 x i8], ptr @_ZZNK6hermes2vm16JSTypedArrayBase12getByteWidthEvE6widths, i64 0, i64 %sub
  %0 = load i8, ptr %arrayidx, align 1
  ret i8 %0
}